; Function Attrs: mustprogress uwtable
define internal fastcc noundef ptr @_ZL9parse_intPKc(ptr noundef %0) unnamed_addr #0 personality ptr @__gxx_personality_v0 {
  %2 = alloca %"class.std::__cxx11::basic_string", align 8
  %3 = alloca %"class.std::__cxx11::basic_string", align 8
  %4 = alloca %"class.std::allocator.3", align 1
  br label %5

5:                                                ; preds = %5, %1
  %.013 = phi ptr [ %0, %1 ], [ %9, %5 ]
  %6 = load i8, ptr %.013, align 1, !tbaa !20
  %7 = add i8 %6, -48
  %8 = icmp ult i8 %7, 10
  %9 = getelementptr inbounds nuw i8, ptr %.013, i64 1
  br i1 %8, label %5, label %10, !llvm.loop !81

10:                                               ; preds = %5
  %11 = icmp eq ptr %.013, %0
  br i1 %11, label %12, label %47

12:                                               ; preds = %10
  %13 = tail call ptr @__cxa_allocate_exception(i64 16) #28
  call void @llvm.lifetime.start.p0(i64 32, ptr nonnull %2) #28
  call void @llvm.lifetime.start.p0(i64 32, ptr nonnull %3) #28
  call void @llvm.lifetime.start.p0(i64 1, ptr nonnull %4) #28
  invoke void @_ZNSt7__cxx1112basic_stringIcSt11char_traitsIcESaIcEEC2IS3_EEPKcRKS3_(ptr noundef nonnull align 8 dereferenceable(32) %3, ptr noundef nonnull @.str.37, ptr noundef nonnull align 1 dereferenceable(1) %4)
          to label %14 unwind label %_ZNSt7__cxx1112basic_stringIcSt11char_traitsIcESaIcEED2Ev.exit19.thread

14:                                               ; preds = %12
  invoke void @_ZStplIcSt11char_traitsIcESaIcEENSt7__cxx1112basic_stringIT_T0_T1_EEOS8_PKS5_(ptr dead_on_unwind nonnull writable sret(%"class.std::__cxx11::basic_string") align 8 %2, ptr noundef nonnull align 8 dereferenceable(32) %3, ptr noundef %0)
          to label %15 unwind label %_ZNSt7__cxx1112basic_stringIcSt11char_traitsIcESaIcEED2Ev.exit.thread

15:                                               ; preds = %14
  invoke void @_ZNSt13runtime_errorC1ERKNSt7__cxx1112basic_stringIcSt11char_traitsIcESaIcEEE(ptr noundef nonnull align 8 dereferenceable(16) %13, ptr noundef nonnull align 8 dereferenceable(32) %2)
          to label %16 unwind label %18

16:                                               ; preds = %15
  invoke void @__cxa_throw(ptr nonnull %13, ptr nonnull @_ZTISt13runtime_error, ptr nonnull @_ZNSt13runtime_errorD1Ev) #29
          to label %48 unwind label %18

_ZNSt7__cxx1112basic_stringIcSt11char_traitsIcESaIcEED2Ev.exit19.thread: ; preds = %12
  %17 = landingpad { ptr, i32 }
          cleanup
  br label %.sink.split

18:                                               ; preds = %16, %15
  %.0 = phi i1 [ false, %16 ], [ true, %15 ]
  %19 = landingpad { ptr, i32 }
          cleanup
  %20 = load ptr, ptr %2, align 8, !tbaa !18
  %21 = getelementptr inbounds nuw i8, ptr %2, i64 16
  %22 = icmp eq ptr %20, %21
  br i1 %22, label %_ZNKSt7__cxx1112basic_stringIcSt11char_traitsIcESaIcEE11_M_is_localEv.exit.thread.i.i, label %_ZNKSt7__cxx1112basic_stringIcSt11char_traitsIcESaIcEE11_M_is_localEv.exit.i.i

_ZNKSt7__cxx1112basic_stringIcSt11char_traitsIcESaIcEE11_M_is_localEv.exit.thread.i.i: ; preds = %18
  %23 = getelementptr inbounds nuw i8, ptr %2, i64 8
  %24 = load i64, ptr %23, align 8, !tbaa !21
  %25 = icmp ult i64 %24, 16
  call void @llvm.assume(i1 %25)
  br label %_ZNSt7__cxx1112basic_stringIcSt11char_traitsIcESaIcEED2Ev.exit

_ZNKSt7__cxx1112basic_stringIcSt11char_traitsIcESaIcEE11_M_is_localEv.exit.i.i: ; preds = %18
  %26 = load i64, ptr %21, align 8, !tbaa !20
  %27 = add i64 %26, 1
  call void @_ZdlPvm(ptr noundef %20, i64 noundef %27) #30
  br label %_ZNSt7__cxx1112basic_stringIcSt11char_traitsIcESaIcEED2Ev.exit

_ZNSt7__cxx1112basic_stringIcSt11char_traitsIcESaIcEED2Ev.exit: ; preds = %_ZNKSt7__cxx1112basic_stringIcSt11char_traitsIcESaIcEE11_M_is_localEv.exit.i.i, %_ZNKSt7__cxx1112basic_stringIcSt11char_traitsIcESaIcEE11_M_is_localEv.exit.thread.i.i
  %28 = load ptr, ptr %3, align 8, !tbaa !18
  %29 = getelementptr inbounds nuw i8, ptr %3, i64 16
  %30 = icmp eq ptr %28, %29
  br i1 %30, label %_ZNKSt7__cxx1112basic_stringIcSt11char_traitsIcESaIcEE11_M_is_localEv.exit.thread.i.i18, label %_ZNSt7__cxx1112basic_stringIcSt11char_traitsIcESaIcEED2Ev.exit19

_ZNSt7__cxx1112basic_stringIcSt11char_traitsIcESaIcEED2Ev.exit.thread: ; preds = %14
  %31 = landingpad { ptr, i32 }
          cleanup
  %32 = load ptr, ptr %3, align 8, !tbaa !18
  %33 = getelementptr inbounds nuw i8, ptr %3, i64 16
  %34 = icmp eq ptr %32, %33
  br i1 %34, label %_ZNKSt7__cxx1112basic_stringIcSt11char_traitsIcESaIcEE11_M_is_localEv.exit.thread.i.i18.thread, label %_ZNSt7__cxx1112basic_stringIcSt11char_traitsIcESaIcEED2Ev.exit19.thread32

_ZNSt7__cxx1112basic_stringIcSt11char_traitsIcESaIcEED2Ev.exit19.thread32: ; preds = %_ZNSt7__cxx1112basic_stringIcSt11char_traitsIcESaIcEED2Ev.exit.thread
  %35 = load i64, ptr %33, align 8, !tbaa !20
  %36 = add i64 %35, 1
  call void @_ZdlPvm(ptr noundef %32, i64 noundef %36) #30
  br label %.sink.split

_ZNKSt7__cxx1112basic_stringIcSt11char_traitsIcESaIcEE11_M_is_localEv.exit.thread.i.i18.thread: ; preds = %_ZNSt7__cxx1112basic_stringIcSt11char_traitsIcESaIcEED2Ev.exit.thread
  %37 = getelementptr inbounds nuw i8, ptr %3, i64 8
  %38 = load i64, ptr %37, align 8, !tbaa !21
  %39 = icmp ult i64 %38, 16
  call void @llvm.assume(i1 %39)
  br label %.sink.split

_ZNKSt7__cxx1112basic_stringIcSt11char_traitsIcESaIcEE11_M_is_localEv.exit.thread.i.i18: ; preds = %_ZNSt7__cxx1112basic_stringIcSt11char_traitsIcESaIcEED2Ev.exit
  %40 = getelementptr inbounds nuw i8, ptr %3, i64 8
  %41 = load i64, ptr %40, align 8, !tbaa !21
  %42 = icmp ult i64 %41, 16
  call void @llvm.assume(i1 %42)
  call void @llvm.lifetime.end.p0(i64 1, ptr nonnull %4) #28
  call void @llvm.lifetime.end.p0(i64 32, ptr nonnull %3) #28
  call void @llvm.lifetime.end.p0(i64 32, ptr nonnull %2) #28
  br i1 %.0, label %45, label %46

_ZNSt7__cxx1112basic_stringIcSt11char_traitsIcESaIcEED2Ev.exit19: ; preds = %_ZNSt7__cxx1112basic_stringIcSt11char_traitsIcESaIcEED2Ev.exit
  %43 = load i64, ptr %29, align 8, !tbaa !20
  %44 = add i64 %43, 1
  call void @_ZdlPvm(ptr noundef %28, i64 noundef %44) #30
  call void @llvm.lifetime.end.p0(i64 1, ptr nonnull %4) #28
  call void @llvm.lifetime.end.p0(i64 32, ptr nonnull %3) #28
  call void @llvm.lifetime.end.p0(i64 32, ptr nonnull %2) #28
  br i1 %.0, label %45, label %46

.sink.split:                                      ; preds = %_ZNSt7__cxx1112basic_stringIcSt11char_traitsIcESaIcEED2Ev.exit19.thread, %_ZNKSt7__cxx1112basic_stringIcSt11char_traitsIcESaIcEE11_M_is_localEv.exit.thread.i.i18.thread, %_ZNSt7__cxx1112basic_stringIcSt11char_traitsIcESaIcEED2Ev.exit19.thread32
  %.pn.pn23.ph = phi { ptr, i32 } [ %31, %_ZNSt7__cxx1112basic_stringIcSt11char_traitsIcESaIcEED2Ev.exit19.thread32 ], [ %31, %_ZNKSt7__cxx1112basic_stringIcSt11char_traitsIcESaIcEE11_M_is_localEv.exit.thread.i.i18.thread ], [ %17, %_ZNSt7__cxx1112basic_stringIcSt11char_traitsIcESaIcEED2Ev.exit19.thread ]
  call void @llvm.lifetime.end.p0(i64 1, ptr nonnull %4) #28
  call void @llvm.lifetime.end.p0(i64 32, ptr nonnull %3) #28
  call void @llvm.lifetime.end.p0(i64 32, ptr nonnull %2) #28
  br label %45

45:                                               ; preds = %.sink.split, %_ZNKSt7__cxx1112basic_stringIcSt11char_traitsIcESaIcEE11_M_is_localEv.exit.thread.i.i18, %_ZNSt7__cxx1112basic_stringIcSt11char_traitsIcESaIcEED2Ev.exit19
  %.pn.pn23 = phi { ptr, i32 } [ %19, %_ZNSt7__cxx1112basic_stringIcSt11char_traitsIcESaIcEED2Ev.exit19 ], [ %19, %_ZNKSt7__cxx1112basic_stringIcSt11char_traitsIcESaIcEE11_M_is_localEv.exit.thread.i.i18 ], [ %.pn.pn23.ph, %.sink.split ]
  call void @__cxa_free_exception(ptr %13) #28
  br label %46

46:                                               ; preds = %_ZNKSt7__cxx1112basic_stringIcSt11char_traitsIcESaIcEE11_M_is_localEv.exit.thread.i.i18, %45, %_ZNSt7__cxx1112basic_stringIcSt11char_traitsIcESaIcEED2Ev.exit19
  %.pn.pn22 = phi { ptr, i32 } [ %.pn.pn23, %45 ], [ %19, %_ZNSt7__cxx1112basic_stringIcSt11char_traitsIcESaIcEED2Ev.exit19 ], [ %19, %_ZNKSt7__cxx1112basic_stringIcSt11char_traitsIcESaIcEE11_M_is_localEv.exit.thread.i.i18 ]
  resume { ptr, i32 } %.pn.pn22

47:                                               ; preds = %10
  ret ptr %.013

48:                                               ; preds = %16
  unreachable
}